target datalayout = "e-m:e-p270:32:32-p271:32:32-p272:64:64-i64:64-i128:128-f80:128-n8:16:32:64-S128"
target triple = "x86_64-unknown-linux-gnu"

%"class.proxygen::GenericFilter" = type { %"class.proxygen::HTTPCodec", %"class.proxygen::HTTPCodec::Callback", i8, i8, ptr, ptr, ptr, ptr, ptr, ptr }
%"class.proxygen::HTTPCodec" = type { ptr }
%"class.proxygen::HTTPCodec::Callback" = type { ptr }

; Function Attrs: mustprogress uwtable
define void @_ZN8proxygen26PassThroughHTTPCodecFilter13onFrameHeaderEmhmmt(ptr noundef nonnull align 8 dereferenceable(72) %this, i64 noundef %stream_id, i8 noundef zeroext %flags, i64 noundef %length, i64 noundef %type, i16 noundef zeroext %version) unnamed_addr #4 align 2 {
entry:
  %this.addr = alloca ptr, align 8
  %stream_id.addr = alloca i64, align 8
  %flags.addr = alloca i8, align 1
  %length.addr = alloca i64, align 8
  %type.addr = alloca i64, align 8
  %version.addr = alloca i16, align 2
  store ptr %this, ptr %this.addr, align 8
  store i64 %stream_id, ptr %stream_id.addr, align 8
  store i8 %flags, ptr %flags.addr, align 1
  store i64 %length, ptr %length.addr, align 8
  store i64 %type, ptr %type.addr, align 8
  store i16 %version, ptr %version.addr, align 2
  %this1 = load ptr, ptr %this.addr, align 8
  %callback_ = getelementptr inbounds %"class.proxygen::GenericFilter", ptr %this1, i32 0, i32 5
  %0 = load ptr, ptr %callback_, align 8
  %1 = load i64, ptr %stream_id.addr, align 8
  %2 = load i8, ptr %flags.addr, align 1
  %3 = load i64, ptr %length.addr, align 8
  %4 = load i64, ptr %type.addr, align 8
  %5 = load i16, ptr %version.addr, align 2
  %vtable = load ptr, ptr %0, align 8
  %vfn = getelementptr inbounds ptr, ptr %vtable, i64 11
  %6 = load ptr, ptr %vfn, align 8
  call void %6(ptr noundef nonnull align 8 dereferenceable(8) %0, i64 noundef %1, i8 noundef zeroext %2, i64 noundef %3, i64 noundef %4, i16 noundef zeroext %5)
  ret void
}

; Function Attrs: uwtable
define void @_ZThn8_N8proxygen26PassThroughHTTPCodecFilter13onFrameHeaderEmhmmt(ptr noundef %this, i64 noundef %stream_id, i8 noundef zeroext %flags, i64 noundef %length, i64 noundef %type, i16 noundef zeroext %version) unnamed_addr #0 align 2 {
entry:
  %this.addr = alloca ptr, align 8
  %stream_id.addr = alloca i64, align 8
  %flags.addr = alloca i8, align 1
  %length.addr = alloca i64, align 8
  %type.addr = alloca i64, align 8
  %version.addr = alloca i16, align 2
  store ptr %this, ptr %this.addr, align 8
  store i64 %stream_id, ptr %stream_id.addr, align 8
  store i8 %flags, ptr %flags.addr, align 1
  store i64 %length, ptr %length.addr, align 8
  store i64 %type, ptr %type.addr, align 8
  store i16 %version, ptr %version.addr, align 2
  %this1 = load ptr, ptr %this.addr, align 8
  %0 = getelementptr inbounds i8, ptr %this1, i64 -8
  %1 = load i64, ptr %stream_id.addr, align 8
  %2 = load i8, ptr %flags.addr, align 1
  %3 = load i64, ptr %length.addr, align 8
  %4 = load i64, ptr %type.addr, align 8
  %5 = load i16, ptr %version.addr, align 2
  tail call void @_ZN8proxygen26PassThroughHTTPCodecFilter13onFrameHeaderEmhmmt(ptr noundef nonnull align 8 dereferenceable(72) %0, i64 noundef %1, i8 noundef zeroext %2, i64 noundef %3, i64 noundef %4, i16 noundef zeroext %5)
  ret void
}