; Function Attrs: uwtable
define void @_ZThn8_N8proxygen26PassThroughHTTPCodecFilter13onFrameHeaderEmhmmt(ptr nocapture noundef readonly %this, i64 noundef %stream_id, i8 noundef zeroext %flags, i64 noundef %length, i64 noundef %type, i16 noundef zeroext %version) unnamed_addr #4 align 2 {
entry:
  %callback_.i = getelementptr inbounds i8, ptr %this, i64 24
  %0 = load ptr, ptr %callback_.i, align 8
  %vtable.i = load ptr, ptr %0, align 8
  %vfn.i = getelementptr inbounds i8, ptr %vtable.i, i64 88
  %1 = load ptr, ptr %vfn.i, align 8
  tail call void %1(ptr noundef nonnull align 8 dereferenceable(8) %0, i64 noundef %stream_id, i8 noundef zeroext %flags, i64 noundef %length, i64 noundef %type, i16 noundef zeroext %version)
  ret void
}